
server:     file format elf64-x86-64


Disassembly of section .init:

0000000000001000 <_init>:
    1000:	f3 0f 1e fa          	endbr64 
    1004:	48 83 ec 08          	sub    $0x8,%rsp
    1008:	48 8b 05 d9 2f 00 00 	mov    0x2fd9(%rip),%rax        # 3fe8 <__gmon_start__>
    100f:	48 85 c0             	test   %rax,%rax
    1012:	74 02                	je     1016 <_init+0x16>
    1014:	ff d0                	callq  *%rax
    1016:	48 83 c4 08          	add    $0x8,%rsp
    101a:	c3                   	retq   

Disassembly of section .plt:

0000000000001020 <.plt>:
    1020:	ff 35 3a 2f 00 00    	pushq  0x2f3a(%rip)        # 3f60 <_GLOBAL_OFFSET_TABLE_+0x8>
    1026:	f2 ff 25 3b 2f 00 00 	bnd jmpq *0x2f3b(%rip)        # 3f68 <_GLOBAL_OFFSET_TABLE_+0x10>
    102d:	0f 1f 00             	nopl   (%rax)
    1030:	f3 0f 1e fa          	endbr64 
    1034:	68 00 00 00 00       	pushq  $0x0
    1039:	f2 e9 e1 ff ff ff    	bnd jmpq 1020 <.plt>
    103f:	90                   	nop
    1040:	f3 0f 1e fa          	endbr64 
    1044:	68 01 00 00 00       	pushq  $0x1
    1049:	f2 e9 d1 ff ff ff    	bnd jmpq 1020 <.plt>
    104f:	90                   	nop
    1050:	f3 0f 1e fa          	endbr64 
    1054:	68 02 00 00 00       	pushq  $0x2
    1059:	f2 e9 c1 ff ff ff    	bnd jmpq 1020 <.plt>
    105f:	90                   	nop
    1060:	f3 0f 1e fa          	endbr64 
    1064:	68 03 00 00 00       	pushq  $0x3
    1069:	f2 e9 b1 ff ff ff    	bnd jmpq 1020 <.plt>
    106f:	90                   	nop
    1070:	f3 0f 1e fa          	endbr64 
    1074:	68 04 00 00 00       	pushq  $0x4
    1079:	f2 e9 a1 ff ff ff    	bnd jmpq 1020 <.plt>
    107f:	90                   	nop
    1080:	f3 0f 1e fa          	endbr64 
    1084:	68 05 00 00 00       	pushq  $0x5
    1089:	f2 e9 91 ff ff ff    	bnd jmpq 1020 <.plt>
    108f:	90                   	nop
    1090:	f3 0f 1e fa          	endbr64 
    1094:	68 06 00 00 00       	pushq  $0x6
    1099:	f2 e9 81 ff ff ff    	bnd jmpq 1020 <.plt>
    109f:	90                   	nop
    10a0:	f3 0f 1e fa          	endbr64 
    10a4:	68 07 00 00 00       	pushq  $0x7
    10a9:	f2 e9 71 ff ff ff    	bnd jmpq 1020 <.plt>
    10af:	90                   	nop
    10b0:	f3 0f 1e fa          	endbr64 
    10b4:	68 08 00 00 00       	pushq  $0x8
    10b9:	f2 e9 61 ff ff ff    	bnd jmpq 1020 <.plt>
    10bf:	90                   	nop
    10c0:	f3 0f 1e fa          	endbr64 
    10c4:	68 09 00 00 00       	pushq  $0x9
    10c9:	f2 e9 51 ff ff ff    	bnd jmpq 1020 <.plt>
    10cf:	90                   	nop
    10d0:	f3 0f 1e fa          	endbr64 
    10d4:	68 0a 00 00 00       	pushq  $0xa
    10d9:	f2 e9 41 ff ff ff    	bnd jmpq 1020 <.plt>
    10df:	90                   	nop
    10e0:	f3 0f 1e fa          	endbr64 
    10e4:	68 0b 00 00 00       	pushq  $0xb
    10e9:	f2 e9 31 ff ff ff    	bnd jmpq 1020 <.plt>
    10ef:	90                   	nop
    10f0:	f3 0f 1e fa          	endbr64 
    10f4:	68 0c 00 00 00       	pushq  $0xc
    10f9:	f2 e9 21 ff ff ff    	bnd jmpq 1020 <.plt>
    10ff:	90                   	nop

Disassembly of section .plt.got:

0000000000001100 <__cxa_finalize@plt>:
    1100:	f3 0f 1e fa          	endbr64 
    1104:	f2 ff 25 ed 2e 00 00 	bnd jmpq *0x2eed(%rip)        # 3ff8 <__cxa_finalize@GLIBC_2.2.5>
    110b:	0f 1f 44 00 00       	nopl   0x0(%rax,%rax,1)

Disassembly of section .plt.sec:

0000000000001110 <write@plt>:
    1110:	f3 0f 1e fa          	endbr64 
    1114:	f2 ff 25 55 2e 00 00 	bnd jmpq *0x2e55(%rip)        # 3f70 <write@GLIBC_2.2.5>
    111b:	0f 1f 44 00 00       	nopl   0x0(%rax,%rax,1)

0000000000001120 <ctime@plt>:
    1120:	f3 0f 1e fa          	endbr64 
    1124:	f2 ff 25 4d 2e 00 00 	bnd jmpq *0x2e4d(%rip)        # 3f78 <ctime@GLIBC_2.2.5>
    112b:	0f 1f 44 00 00       	nopl   0x0(%rax,%rax,1)

0000000000001130 <strlen@plt>:
    1130:	f3 0f 1e fa          	endbr64 
    1134:	f2 ff 25 45 2e 00 00 	bnd jmpq *0x2e45(%rip)        # 3f80 <strlen@GLIBC_2.2.5>
    113b:	0f 1f 44 00 00       	nopl   0x0(%rax,%rax,1)

0000000000001140 <htons@plt>:
    1140:	f3 0f 1e fa          	endbr64 
    1144:	f2 ff 25 3d 2e 00 00 	bnd jmpq *0x2e3d(%rip)        # 3f88 <htons@GLIBC_2.2.5>
    114b:	0f 1f 44 00 00       	nopl   0x0(%rax,%rax,1)

0000000000001150 <memset@plt>:
    1150:	f3 0f 1e fa          	endbr64 
    1154:	f2 ff 25 35 2e 00 00 	bnd jmpq *0x2e35(%rip)        # 3f90 <memset@GLIBC_2.2.5>
    115b:	0f 1f 44 00 00       	nopl   0x0(%rax,%rax,1)

0000000000001160 <close@plt>:
    1160:	f3 0f 1e fa          	endbr64 
    1164:	f2 ff 25 2d 2e 00 00 	bnd jmpq *0x2e2d(%rip)        # 3f98 <close@GLIBC_2.2.5>
    116b:	0f 1f 44 00 00       	nopl   0x0(%rax,%rax,1)

0000000000001170 <inet_addr@plt>:
    1170:	f3 0f 1e fa          	endbr64 
    1174:	f2 ff 25 25 2e 00 00 	bnd jmpq *0x2e25(%rip)        # 3fa0 <inet_addr@GLIBC_2.2.5>
    117b:	0f 1f 44 00 00       	nopl   0x0(%rax,%rax,1)

0000000000001180 <time@plt>:
    1180:	f3 0f 1e fa          	endbr64 
    1184:	f2 ff 25 1d 2e 00 00 	bnd jmpq *0x2e1d(%rip)        # 3fa8 <time@GLIBC_2.2.5>
    118b:	0f 1f 44 00 00       	nopl   0x0(%rax,%rax,1)

0000000000001190 <listen@plt>:
    1190:	f3 0f 1e fa          	endbr64 
    1194:	f2 ff 25 15 2e 00 00 	bnd jmpq *0x2e15(%rip)        # 3fb0 <listen@GLIBC_2.2.5>
    119b:	0f 1f 44 00 00       	nopl   0x0(%rax,%rax,1)

00000000000011a0 <bind@plt>:
    11a0:	f3 0f 1e fa          	endbr64 
    11a4:	f2 ff 25 0d 2e 00 00 	bnd jmpq *0x2e0d(%rip)        # 3fb8 <bind@GLIBC_2.2.5>
    11ab:	0f 1f 44 00 00       	nopl   0x0(%rax,%rax,1)

00000000000011b0 <accept@plt>:
    11b0:	f3 0f 1e fa          	endbr64 
    11b4:	f2 ff 25 05 2e 00 00 	bnd jmpq *0x2e05(%rip)        # 3fc0 <accept@GLIBC_2.2.5>
    11bb:	0f 1f 44 00 00       	nopl   0x0(%rax,%rax,1)

00000000000011c0 <sprintf@plt>:
    11c0:	f3 0f 1e fa          	endbr64 
    11c4:	f2 ff 25 fd 2d 00 00 	bnd jmpq *0x2dfd(%rip)        # 3fc8 <sprintf@GLIBC_2.2.5>
    11cb:	0f 1f 44 00 00       	nopl   0x0(%rax,%rax,1)

00000000000011d0 <socket@plt>:
    11d0:	f3 0f 1e fa          	endbr64 
    11d4:	f2 ff 25 f5 2d 00 00 	bnd jmpq *0x2df5(%rip)        # 3fd0 <socket@GLIBC_2.2.5>
    11db:	0f 1f 44 00 00       	nopl   0x0(%rax,%rax,1)

Disassembly of section .text:

00000000000011e0 <_start>:
    11e0:	f3 0f 1e fa          	endbr64 
    11e4:	31 ed                	xor    %ebp,%ebp
    11e6:	49 89 d1             	mov    %rdx,%r9
    11e9:	5e                   	pop    %rsi
    11ea:	48 89 e2             	mov    %rsp,%rdx
    11ed:	48 83 e4 f0          	and    $0xfffffffffffffff0,%rsp
    11f1:	50                   	push   %rax
    11f2:	54                   	push   %rsp
    11f3:	4c 8d 05 b6 02 00 00 	lea    0x2b6(%rip),%r8        # 14b0 <__libc_csu_fini>
    11fa:	48 8d 0d 3f 02 00 00 	lea    0x23f(%rip),%rcx        # 1440 <__libc_csu_init>
    1201:	48 8d 3d c1 00 00 00 	lea    0xc1(%rip),%rdi        # 12c9 <main>
    1208:	ff 15 d2 2d 00 00    	callq  *0x2dd2(%rip)        # 3fe0 <__libc_start_main@GLIBC_2.2.5>
    120e:	f4                   	hlt    
    120f:	90                   	nop

0000000000001210 <deregister_tm_clones>:
    1210:	48 8d 3d f9 2d 00 00 	lea    0x2df9(%rip),%rdi        # 4010 <__TMC_END__>
    1217:	48 8d 05 f2 2d 00 00 	lea    0x2df2(%rip),%rax        # 4010 <__TMC_END__>
    121e:	48 39 f8             	cmp    %rdi,%rax
    1221:	74 15                	je     1238 <deregister_tm_clones+0x28>
    1223:	48 8b 05 ae 2d 00 00 	mov    0x2dae(%rip),%rax        # 3fd8 <_ITM_deregisterTMCloneTable>
    122a:	48 85 c0             	test   %rax,%rax
    122d:	74 09                	je     1238 <deregister_tm_clones+0x28>
    122f:	ff e0                	jmpq   *%rax
    1231:	0f 1f 80 00 00 00 00 	nopl   0x0(%rax)
    1238:	c3                   	retq   
    1239:	0f 1f 80 00 00 00 00 	nopl   0x0(%rax)

0000000000001240 <register_tm_clones>:
    1240:	48 8d 3d c9 2d 00 00 	lea    0x2dc9(%rip),%rdi        # 4010 <__TMC_END__>
    1247:	48 8d 35 c2 2d 00 00 	lea    0x2dc2(%rip),%rsi        # 4010 <__TMC_END__>
    124e:	48 29 fe             	sub    %rdi,%rsi
    1251:	48 89 f0             	mov    %rsi,%rax
    1254:	48 c1 ee 3f          	shr    $0x3f,%rsi
    1258:	48 c1 f8 03          	sar    $0x3,%rax
    125c:	48 01 c6             	add    %rax,%rsi
    125f:	48 d1 fe             	sar    %rsi
    1262:	74 14                	je     1278 <register_tm_clones+0x38>
    1264:	48 8b 05 85 2d 00 00 	mov    0x2d85(%rip),%rax        # 3ff0 <_ITM_registerTMCloneTable>
    126b:	48 85 c0             	test   %rax,%rax
    126e:	74 08                	je     1278 <register_tm_clones+0x38>
    1270:	ff e0                	jmpq   *%rax
    1272:	66 0f 1f 44 00 00    	nopw   0x0(%rax,%rax,1)
    1278:	c3                   	retq   
    1279:	0f 1f 80 00 00 00 00 	nopl   0x0(%rax)

0000000000001280 <__do_global_dtors_aux>:
    1280:	f3 0f 1e fa          	endbr64 
    1284:	80 3d 85 2d 00 00 00 	cmpb   $0x0,0x2d85(%rip)        # 4010 <__TMC_END__>
    128b:	75 2b                	jne    12b8 <__do_global_dtors_aux+0x38>
    128d:	55                   	push   %rbp
    128e:	48 83 3d 62 2d 00 00 	cmpq   $0x0,0x2d62(%rip)        # 3ff8 <__cxa_finalize@GLIBC_2.2.5>
    1295:	00 
    1296:	48 89 e5             	mov    %rsp,%rbp
    1299:	74 0c                	je     12a7 <__do_global_dtors_aux+0x27>
    129b:	48 8b 3d 66 2d 00 00 	mov    0x2d66(%rip),%rdi        # 4008 <__dso_handle>
    12a2:	e8 59 fe ff ff       	callq  1100 <__cxa_finalize@plt>
    12a7:	e8 64 ff ff ff       	callq  1210 <deregister_tm_clones>
    12ac:	c6 05 5d 2d 00 00 01 	movb   $0x1,0x2d5d(%rip)        # 4010 <__TMC_END__>
    12b3:	5d                   	pop    %rbp
    12b4:	c3                   	retq   
    12b5:	0f 1f 00             	nopl   (%rax)
    12b8:	c3                   	retq   
    12b9:	0f 1f 80 00 00 00 00 	nopl   0x0(%rax)

00000000000012c0 <frame_dummy>:
    12c0:	f3 0f 1e fa          	endbr64 
    12c4:	e9 77 ff ff ff       	jmpq   1240 <register_tm_clones>

00000000000012c9 <main>:
#include <string.h>
#include <sys/types.h>
#include <time.h>

void main()
{
    12c9:	f3 0f 1e fa          	endbr64 
    12cd:	55                   	push   %rbp
    12ce:	48 89 e5             	mov    %rsp,%rbp
    12d1:	48 81 ec 30 04 00 00 	sub    $0x430,%rsp
    12d8:	64 48 8b 04 25 28 00 	mov    %fs:0x28,%rax
    12df:	00 00 
    12e1:	48 89 45 f8          	mov    %rax,-0x8(%rbp)
    12e5:	31 c0                	xor    %eax,%eax
    int listenfd = -1;
    12e7:	c7 85 d0 fb ff ff ff 	movl   $0xffffffff,-0x430(%rbp)
    12ee:	ff ff ff 
    int connfd = -1;
    12f1:	c7 85 d4 fb ff ff ff 	movl   $0xffffffff,-0x42c(%rbp)
    12f8:	ff ff ff 
    struct sockaddr_in server_addr;
    char send_buffer[1024];
    time_t ticks;

    memset(send_buffer, 0, sizeof(send_buffer));
    12fb:	48 8d 85 f0 fb ff ff 	lea    -0x410(%rbp),%rax
    1302:	ba 00 04 00 00       	mov    $0x400,%edx
    1307:	be 00 00 00 00       	mov    $0x0,%esi
    130c:	48 89 c7             	mov    %rax,%rdi
    130f:	e8 3c fe ff ff       	callq  1150 <memset@plt>
    memset(&server_addr, 0, sizeof(server_addr));
    1314:	48 8d 85 e0 fb ff ff 	lea    -0x420(%rbp),%rax
    131b:	ba 10 00 00 00       	mov    $0x10,%edx
    1320:	be 00 00 00 00       	mov    $0x0,%esi
    1325:	48 89 c7             	mov    %rax,%rdi
    1328:	e8 23 fe ff ff       	callq  1150 <memset@plt>

    listenfd = socket(AF_INET, SOCK_STREAM, 0);
    132d:	ba 00 00 00 00       	mov    $0x0,%edx
    1332:	be 01 00 00 00       	mov    $0x1,%esi
    1337:	bf 02 00 00 00       	mov    $0x2,%edi
    133c:	e8 8f fe ff ff       	callq  11d0 <socket@plt>
    1341:	89 85 d0 fb ff ff    	mov    %eax,-0x430(%rbp)
    server_addr.sin_family = AF_INET;
    1347:	66 c7 85 e0 fb ff ff 	movw   $0x2,-0x420(%rbp)
    134e:	02 00 
    server_addr.sin_addr.s_addr = inet_addr("192.168.126.4");
    1350:	48 8d 3d ad 0c 00 00 	lea    0xcad(%rip),%rdi        # 2004 <_IO_stdin_used+0x4>
    1357:	e8 14 fe ff ff       	callq  1170 <inet_addr@plt>
    135c:	89 85 e4 fb ff ff    	mov    %eax,-0x41c(%rbp)
    server_addr.sin_port = htons(5000);
    1362:	bf 88 13 00 00       	mov    $0x1388,%edi
    1367:	e8 d4 fd ff ff       	callq  1140 <htons@plt>
    136c:	66 89 85 e2 fb ff ff 	mov    %ax,-0x41e(%rbp)

    bind(listenfd, (struct sockaddr *)&server_addr, sizeof(server_addr));
    1373:	48 8d 8d e0 fb ff ff 	lea    -0x420(%rbp),%rcx
    137a:	8b 85 d0 fb ff ff    	mov    -0x430(%rbp),%eax
    1380:	ba 10 00 00 00       	mov    $0x10,%edx
    1385:	48 89 ce             	mov    %rcx,%rsi
    1388:	89 c7                	mov    %eax,%edi
    138a:	e8 11 fe ff ff       	callq  11a0 <bind@plt>
    listen(listenfd, 10);
    138f:	8b 85 d0 fb ff ff    	mov    -0x430(%rbp),%eax
    1395:	be 0a 00 00 00       	mov    $0xa,%esi
    139a:	89 c7                	mov    %eax,%edi
    139c:	e8 ef fd ff ff       	callq  1190 <listen@plt>

    while (1)
    {
        connfd = accept(listenfd, (struct sockaddr *)NULL, NULL);
    13a1:	8b 85 d0 fb ff ff    	mov    -0x430(%rbp),%eax
    13a7:	ba 00 00 00 00       	mov    $0x0,%edx
    13ac:	be 00 00 00 00       	mov    $0x0,%esi
    13b1:	89 c7                	mov    %eax,%edi
    13b3:	e8 f8 fd ff ff       	callq  11b0 <accept@plt>
    13b8:	89 85 d4 fb ff ff    	mov    %eax,-0x42c(%rbp)
        ticks = time(NULL);
    13be:	bf 00 00 00 00       	mov    $0x0,%edi
    13c3:	e8 b8 fd ff ff       	callq  1180 <time@plt>
    13c8:	48 89 85 d8 fb ff ff 	mov    %rax,-0x428(%rbp)
        sprintf(send_buffer, "Server reply %s", ctime(&ticks));
    13cf:	48 8d 85 d8 fb ff ff 	lea    -0x428(%rbp),%rax
    13d6:	48 89 c7             	mov    %rax,%rdi
    13d9:	e8 42 fd ff ff       	callq  1120 <ctime@plt>
    13de:	48 89 c2             	mov    %rax,%rdx
    13e1:	48 8d 85 f0 fb ff ff 	lea    -0x410(%rbp),%rax
    13e8:	48 8d 35 23 0c 00 00 	lea    0xc23(%rip),%rsi        # 2012 <_IO_stdin_used+0x12>
    13ef:	48 89 c7             	mov    %rax,%rdi
    13f2:	b8 00 00 00 00       	mov    $0x0,%eax
    13f7:	e8 c4 fd ff ff       	callq  11c0 <sprintf@plt>
        write(connfd, send_buffer, strlen(send_buffer));
    13fc:	48 8d 85 f0 fb ff ff 	lea    -0x410(%rbp),%rax
    1403:	48 89 c7             	mov    %rax,%rdi
    1406:	e8 25 fd ff ff       	callq  1130 <strlen@plt>
    140b:	48 89 c2             	mov    %rax,%rdx
    140e:	48 8d 8d f0 fb ff ff 	lea    -0x410(%rbp),%rcx
    1415:	8b 85 d4 fb ff ff    	mov    -0x42c(%rbp),%eax
    141b:	48 89 ce             	mov    %rcx,%rsi
    141e:	89 c7                	mov    %eax,%edi
    1420:	e8 eb fc ff ff       	callq  1110 <write@plt>
        close(connfd);
    1425:	8b 85 d4 fb ff ff    	mov    -0x42c(%rbp),%eax
    142b:	89 c7                	mov    %eax,%edi
    142d:	e8 2e fd ff ff       	callq  1160 <close@plt>
        connfd = accept(listenfd, (struct sockaddr *)NULL, NULL);
    1432:	e9 6a ff ff ff       	jmpq   13a1 <main+0xd8>
    1437:	66 0f 1f 84 00 00 00 	nopw   0x0(%rax,%rax,1)
    143e:	00 00 

0000000000001440 <__libc_csu_init>:
    1440:	f3 0f 1e fa          	endbr64 
    1444:	41 57                	push   %r15
    1446:	4c 8d 3d 0b 29 00 00 	lea    0x290b(%rip),%r15        # 3d58 <__frame_dummy_init_array_entry>
    144d:	41 56                	push   %r14
    144f:	49 89 d6             	mov    %rdx,%r14
    1452:	41 55                	push   %r13
    1454:	49 89 f5             	mov    %rsi,%r13
    1457:	41 54                	push   %r12
    1459:	41 89 fc             	mov    %edi,%r12d
    145c:	55                   	push   %rbp
    145d:	48 8d 2d fc 28 00 00 	lea    0x28fc(%rip),%rbp        # 3d60 <__do_global_dtors_aux_fini_array_entry>
    1464:	53                   	push   %rbx
    1465:	4c 29 fd             	sub    %r15,%rbp
    1468:	48 83 ec 08          	sub    $0x8,%rsp
    146c:	e8 8f fb ff ff       	callq  1000 <_init>
    1471:	48 c1 fd 03          	sar    $0x3,%rbp
    1475:	74 1f                	je     1496 <__libc_csu_init+0x56>
    1477:	31 db                	xor    %ebx,%ebx
    1479:	0f 1f 80 00 00 00 00 	nopl   0x0(%rax)
    1480:	4c 89 f2             	mov    %r14,%rdx
    1483:	4c 89 ee             	mov    %r13,%rsi
    1486:	44 89 e7             	mov    %r12d,%edi
    1489:	41 ff 14 df          	callq  *(%r15,%rbx,8)
    148d:	48 83 c3 01          	add    $0x1,%rbx
    1491:	48 39 dd             	cmp    %rbx,%rbp
    1494:	75 ea                	jne    1480 <__libc_csu_init+0x40>
    1496:	48 83 c4 08          	add    $0x8,%rsp
    149a:	5b                   	pop    %rbx
    149b:	5d                   	pop    %rbp
    149c:	41 5c                	pop    %r12
    149e:	41 5d                	pop    %r13
    14a0:	41 5e                	pop    %r14
    14a2:	41 5f                	pop    %r15
    14a4:	c3                   	retq   
    14a5:	66 66 2e 0f 1f 84 00 	data16 nopw %cs:0x0(%rax,%rax,1)
    14ac:	00 00 00 00 

00000000000014b0 <__libc_csu_fini>:
    14b0:	f3 0f 1e fa          	endbr64 
    14b4:	c3                   	retq   

Disassembly of section .fini:

00000000000014b8 <_fini>:
    14b8:	f3 0f 1e fa          	endbr64 
    14bc:	48 83 ec 08          	sub    $0x8,%rsp
    14c0:	48 83 c4 08          	add    $0x8,%rsp
    14c4:	c3                   	retq   
